; Function Attrs: mustprogress nofree norecurse nosync nounwind willreturn memory(readwrite, inaccessiblemem: none) uwtable
define hidden void @_ZN9Assembler31emit_opcode_prefix_and_encodingEii(ptr nocapture noundef nonnull readonly align 8 dereferenceable(40) %0, i32 noundef %1, i32 noundef %2) local_unnamed_addr #8 align 2 {
  %4 = and i32 %2, 65280
  %.not = icmp eq i32 %4, 0
  br i1 %.not, label %14, label %5

5:                                                ; preds = %3
  %6 = lshr i32 %2, 8
  %7 = or i32 %2, %1
  %8 = getelementptr inbounds i8, ptr %0, i64 8
  %9 = load ptr, ptr %8, align 8
  %.0.i.i = trunc i32 %6 to i8
  %.0.i2.i = trunc i32 %7 to i8
  %10 = getelementptr inbounds i8, ptr %9, i64 16
  %11 = load ptr, ptr %10, align 8
  %12 = getelementptr inbounds i8, ptr %11, i64 1
  store i8 %.0.i.i, ptr %11, align 1
  %13 = getelementptr inbounds i8, ptr %11, i64 2
  store i8 %.0.i2.i, ptr %12, align 1
  store ptr %13, ptr %10, align 8
  br label %21

14:                                               ; preds = %3
  %15 = or i32 %2, %1
  %16 = getelementptr inbounds i8, ptr %0, i64 8
  %17 = load ptr, ptr %16, align 8
  %.0.i.i7 = trunc i32 %15 to i8
  %18 = getelementptr inbounds i8, ptr %17, i64 16
  %19 = load ptr, ptr %18, align 8
  %20 = getelementptr inbounds i8, ptr %19, i64 1
  store i8 %.0.i.i7, ptr %19, align 1
  store ptr %20, ptr %18, align 8
  br label %21

21:                                               ; preds = %14, %5
  ret void
}